; Function Attrs: nounwind uwtable
define dso_local noundef ptr @CreateTupleDescCopy(ptr noundef readonly captures(none) %0) local_unnamed_addr #0 {
  %2 = load i32, ptr %0, align 8
  %3 = sext i32 %2 to i64
  %reass.mul.i = mul nsw i64 %3, 116
  %4 = add nsw i64 %reass.mul.i, 24
  %5 = tail call ptr @palloc(i64 noundef %4) #11
  store i32 %2, ptr %5, align 8
  %6 = getelementptr inbounds nuw i8, ptr %5, i64 16
  store ptr null, ptr %6, align 8
  %7 = getelementptr inbounds nuw i8, ptr %5, i64 4
  store i32 2249, ptr %7, align 4
  %8 = getelementptr inbounds nuw i8, ptr %5, i64 8
  store i32 -1, ptr %8, align 8
  %9 = getelementptr inbounds nuw i8, ptr %5, i64 12
  store i32 -1, ptr %9, align 4
  %10 = shl nsw i64 %3, 4
  %11 = getelementptr i8, ptr %5, i64 %10
  %12 = getelementptr i8, ptr %11, i64 24
  %13 = load i32, ptr %0, align 8
  %14 = sext i32 %13 to i64
  %15 = shl nsw i64 %14, 4
  %16 = getelementptr i8, ptr %0, i64 %15
  %17 = getelementptr i8, ptr %16, i64 24
  %18 = mul nsw i64 %3, 100
  tail call void @llvm.memcpy.p0.p0.i64(ptr align 4 %12, ptr align 4 %17, i64 %18, i1 false)
  %invariant.gep = getelementptr i8, ptr %5, i64 24
  %19 = load i32, ptr %5, align 8
  %20 = icmp sgt i32 %19, 0
  br i1 %20, label %.lr.ph, label %._crit_edge

.lr.ph:                                           ; preds = %1, %.lr.ph
  %indvars.iv = phi i64 [ %indvars.iv.next, %.lr.ph ], [ 0, %1 ]
  %21 = phi i32 [ %26, %.lr.ph ], [ %19, %1 ]
  %22 = sext i32 %21 to i64
  %23 = shl nsw i64 %22, 4
  %gep = getelementptr i8, ptr %invariant.gep, i64 %23
  %24 = getelementptr inbounds nuw %struct.FormData_pg_attribute, ptr %gep, i64 %indvars.iv, i32 11
  %25 = trunc nuw nsw i64 %indvars.iv to i32
  tail call void @llvm.memset.p0.i64(ptr noundef nonnull align 2 dereferenceable(5) %24, i8 0, i64 5, i1 false)
  tail call void @populate_compact_attribute(ptr noundef nonnull %5, i32 noundef %25)
  %indvars.iv.next = add nuw nsw i64 %indvars.iv, 1
  %26 = load i32, ptr %5, align 8
  %27 = sext i32 %26 to i64
  %28 = icmp slt i64 %indvars.iv.next, %27
  br i1 %28, label %.lr.ph, label %._crit_edge, !llvm.loop !8

._crit_edge:                                      ; preds = %.lr.ph, %1
  %29 = getelementptr inbounds nuw i8, ptr %0, i64 4
  %30 = load i32, ptr %29, align 4
  store i32 %30, ptr %7, align 4
  %31 = getelementptr inbounds nuw i8, ptr %0, i64 8
  %32 = load i32, ptr %31, align 8
  store i32 %32, ptr %8, align 8
  ret ptr %5
}